target datalayout = "e-m:e-p270:32:32-p271:32:32-p272:64:64-i64:64-i128:128-f80:128-n8:16:32:64-S128"
target triple = "x86_64-unknown-linux-gnu"

; Function Attrs: mustprogress uwtable
define noundef double @_ZNK8QuantLib19StochasticProcess1D6evolveEdddd(ptr noundef nonnull align 8 dereferenceable(144) %this, double noundef %t0, double noundef %x0, double noundef %dt, double noundef %dw) unnamed_addr #2 align 2 {
entry:
  %this.addr = alloca ptr, align 8
  %t0.addr = alloca double, align 8
  %x0.addr = alloca double, align 8
  %dt.addr = alloca double, align 8
  %dw.addr = alloca double, align 8
  store ptr %this, ptr %this.addr, align 8, !tbaa !3
  store double %t0, ptr %t0.addr, align 8, !tbaa !16
  store double %x0, ptr %x0.addr, align 8, !tbaa !16
  store double %dt, ptr %dt.addr, align 8, !tbaa !16
  store double %dw, ptr %dw.addr, align 8, !tbaa !16
  %this1 = load ptr, ptr %this.addr, align 8
  %0 = load double, ptr %t0.addr, align 8, !tbaa !16
  %1 = load double, ptr %x0.addr, align 8, !tbaa !16
  %2 = load double, ptr %dt.addr, align 8, !tbaa !16
  %vtable = load ptr, ptr %this1, align 8, !tbaa !12
  %vfn = getelementptr inbounds ptr, ptr %vtable, i64 18
  %3 = load ptr, ptr %vfn, align 8
  %call = call noundef double %3(ptr noundef nonnull align 8 dereferenceable(144) %this1, double noundef %0, double noundef %1, double noundef %2)
  %4 = load double, ptr %t0.addr, align 8, !tbaa !16
  %5 = load double, ptr %x0.addr, align 8, !tbaa !16
  %6 = load double, ptr %dt.addr, align 8, !tbaa !16
  %vtable2 = load ptr, ptr %this1, align 8, !tbaa !12
  %vfn3 = getelementptr inbounds ptr, ptr %vtable2, i64 19
  %7 = load ptr, ptr %vfn3, align 8
  %call4 = call noundef double %7(ptr noundef nonnull align 8 dereferenceable(144) %this1, double noundef %4, double noundef %5, double noundef %6)
  %8 = load double, ptr %dw.addr, align 8, !tbaa !16
  %mul = fmul double %call4, %8
  %vtable5 = load ptr, ptr %this1, align 8, !tbaa !12
  %vfn6 = getelementptr inbounds ptr, ptr %vtable5, i64 22
  %9 = load ptr, ptr %vfn6, align 8
  %call7 = call noundef double %9(ptr noundef nonnull align 8 dereferenceable(144) %this1, double noundef %call, double noundef %mul)
  ret double %call7
}