; Function Attrs: mustprogress uwtable
define noundef double @_ZNK8QuantLib19StochasticProcess1D6evolveEdddd(ptr noundef nonnull align 8 dereferenceable(144) %this, double noundef %t0, double noundef %x0, double noundef %dt, double noundef %dw) unnamed_addr #7 align 2 {
entry:
  %vtable = load ptr, ptr %this, align 8, !tbaa !28
  %vfn = getelementptr inbounds i8, ptr %vtable, i64 144
  %0 = load ptr, ptr %vfn, align 8
  %call = tail call noundef double %0(ptr noundef nonnull align 8 dereferenceable(144) %this, double noundef %t0, double noundef %x0, double noundef %dt)
  %vtable2 = load ptr, ptr %this, align 8, !tbaa !28
  %vfn3 = getelementptr inbounds i8, ptr %vtable2, i64 152
  %1 = load ptr, ptr %vfn3, align 8
  %call4 = tail call noundef double %1(ptr noundef nonnull align 8 dereferenceable(144) %this, double noundef %t0, double noundef %x0, double noundef %dt)
  %mul = fmul double %dw, %call4
  %vtable5 = load ptr, ptr %this, align 8, !tbaa !28
  %vfn6 = getelementptr inbounds i8, ptr %vtable5, i64 176
  %2 = load ptr, ptr %vfn6, align 8
  %call7 = tail call noundef double %2(ptr noundef nonnull align 8 dereferenceable(144) %this, double noundef %call, double noundef %mul)
  ret double %call7
}